; Function Attrs: nounwind uwtable
define void @ff_msmpeg4_encode_motion(ptr noundef captures(none) %0, i32 noundef %1, i32 noundef %2) local_unnamed_addr #0 {
  %4 = getelementptr inbounds nuw i8, ptr %0, i64 8120
  %5 = load i32, ptr %4, align 8, !tbaa !75
  %6 = icmp slt i32 %1, -63
  %7 = add nsw i32 %1, 64
  %8 = icmp sgt i32 %1, 63
  %9 = add nuw i32 %1, 67108800
  %spec.select = select i1 %8, i32 %9, i32 %1
  %.0 = select i1 %6, i32 %7, i32 %spec.select
  %10 = icmp slt i32 %2, -63
  %11 = add nsw i32 %2, 64
  %12 = icmp sgt i32 %2, 63
  %13 = add nsw i32 %2, -64
  %spec.select21 = select i1 %12, i32 %13, i32 %2
  %.017 = select i1 %10, i32 %11, i32 %spec.select21
  %14 = sext i32 %5 to i64
  %15 = getelementptr inbounds [2 x [4096 x i32]], ptr @mv_vector_tables, i64 0, i64 %14
  %16 = add nsw i32 %.017, 32
  %17 = shl i32 %.0, 6
  %18 = add i32 %17, 2048
  %19 = or i32 %18, %16
  %20 = sext i32 %19 to i64
  %21 = getelementptr inbounds i32, ptr %15, i64 %20
  %22 = load i32, ptr %21, align 4, !tbaa !77
  %23 = getelementptr inbounds nuw i8, ptr %0, i64 4808
  %24 = and i32 %22, 255
  %25 = lshr i32 %22, 8
  %26 = load i32, ptr %23, align 8, !tbaa !4
  %27 = getelementptr inbounds nuw i8, ptr %0, i64 4812
  %28 = load i32, ptr %27, align 4, !tbaa !11
  %29 = icmp slt i32 %24, %28
  br i1 %29, label %30, label %34

30:                                               ; preds = %3
  %31 = shl i32 %26, %24
  %32 = or i32 %31, %25
  %33 = sub nsw i32 %28, %24
  br label %put_bits.exit

34:                                               ; preds = %3
  %35 = getelementptr inbounds nuw i8, ptr %0, i64 4832
  %36 = load ptr, ptr %35, align 8, !tbaa !12
  %37 = getelementptr inbounds nuw i8, ptr %0, i64 4824
  %38 = load ptr, ptr %37, align 8, !tbaa !13
  %39 = ptrtoint ptr %36 to i64
  %40 = ptrtoint ptr %38 to i64
  %41 = sub i64 %39, %40
  %42 = icmp ugt i64 %41, 3
  br i1 %42, label %43, label %51

43:                                               ; preds = %34
  %44 = shl i32 %26, %28
  %45 = sub nsw i32 %24, %28
  %46 = lshr i32 %25, %45
  %47 = or i32 %46, %44
  %48 = tail call i32 @llvm.bswap.i32(i32 %47)
  store i32 %48, ptr %38, align 1, !tbaa !14
  %49 = load ptr, ptr %37, align 8, !tbaa !13
  %50 = getelementptr inbounds nuw i8, ptr %49, i64 4
  store ptr %50, ptr %37, align 8, !tbaa !13
  br label %52

51:                                               ; preds = %34
  tail call void (ptr, i32, ptr, ...) @av_log(ptr noundef null, i32 noundef 16, ptr noundef nonnull @.str.11) #9
  br label %52

52:                                               ; preds = %51, %43
  %reass.sub = sub i32 %28, %24
  %53 = add i32 %reass.sub, 32
  br label %put_bits.exit

put_bits.exit:                                    ; preds = %30, %52
  %.026.i.i = phi i32 [ %32, %30 ], [ %25, %52 ]
  %.0.i.i = phi i32 [ %33, %30 ], [ %53, %52 ]
  store i32 %.026.i.i, ptr %23, align 8, !tbaa !4
  store i32 %.0.i.i, ptr %27, align 4, !tbaa !11
  ret void
}